target datalayout = "e-m:e-p270:32:32-p271:32:32-p272:64:64-i64:64-i128:128-f80:128-n8:16:32:64-S128"
target triple = "x86_64-pc-linux-gnu"

%struct._zval_struct = type { %union._zend_value, %union.anon, %union.anon.2 }
%union._zend_value = type { i64 }
%union.anon = type { i32 }
%union.anon.2 = type { i32 }
%struct._zend_array = type { %struct._zend_refcounted_h, %union.anon.4, i32, %union.anon.6, i32, i32, i32, i32, i64, ptr }
%struct._zend_refcounted_h = type { i32, %union.anon.3 }
%union.anon.3 = type { i32 }
%union.anon.4 = type { i32 }
%union.anon.6 = type { ptr }
%struct._zend_phpdbg_globals = type { [11 x %struct._zend_array], %struct._zend_array, %struct._zend_array, ptr, ptr, %struct.phpdbg_frame_t, i32, ptr, %struct.phpdbg_lexer_data, ptr, %struct.sigaction, i32, i64, %struct.phpdbg_btree, %struct.phpdbg_btree, %struct._zend_array, %struct._zend_array, %struct._zend_array, %struct._zend_array, ptr, ptr, ptr, i8, ptr, ptr, ptr, i64, ptr, %struct._zval_struct, i32, i32, i8, i8, ptr, ptr, ptr, %struct._zend_array, ptr, ptr, ptr, [3 x %struct.anon.9], ptr, %struct.anon.10, i64, [2 x ptr], [3 x ptr], ptr, i8, ptr, ptr, [500 x i8], i32, %struct.phpdbg_signal_safe_mem, ptr, i64, ptr, i64 }
%struct.phpdbg_frame_t = type { i32, ptr, ptr }
%struct.phpdbg_lexer_data = type { i32, ptr, ptr, ptr, ptr, i32 }
%struct.sigaction = type { %union.anon.8, %struct.__sigset_t, i32, ptr }
%union.anon.8 = type { ptr }
%struct.__sigset_t = type { [16 x i64] }
%struct.phpdbg_btree = type { i64, i64, i8, ptr }
%struct.anon.9 = type { i32 }
%struct.anon.10 = type { i8, i32, i32, ptr, i32 }
%struct.phpdbg_signal_safe_mem = type { ptr, i8, ptr, ptr }

@phpdbg_globals = hidden global %struct._zend_phpdbg_globals zeroinitializer, align 8
@.str.31 = private unnamed_addr constant [10 x i8] c"8.5.0-dev\00", align 1
@zend_execute_ex = external global ptr, align 8
@.str.76 = private unnamed_addr constant [15 x i8] c"PHPDBG_VERSION\00", align 1
@.str.77 = private unnamed_addr constant [20 x i8] c"PHPDBG_COLOR_PROMPT\00", align 1
@.str.78 = private unnamed_addr constant [20 x i8] c"PHPDBG_COLOR_NOTICE\00", align 1
@.str.79 = private unnamed_addr constant [19 x i8] c"PHPDBG_COLOR_ERROR\00", align 1

; Function Attrs: nounwind uwtable
define internal void @register_phpdbg_symbols(i32 noundef %0) #0 {
  %2 = alloca i32, align 4
  store i32 %0, ptr %2, align 4, !tbaa !98
  %3 = load i32, ptr %2, align 4, !tbaa !98
  call void @zend_register_string_constant(ptr noundef @.str.76, i64 noundef 14, ptr noundef @.str.31, i32 noundef 1, i32 noundef %3)
  %4 = load i32, ptr %2, align 4, !tbaa !98
  call void @zend_register_long_constant(ptr noundef @.str.77, i64 noundef 19, i64 noundef 0, i32 noundef 1, i32 noundef %4)
  %5 = load i32, ptr %2, align 4, !tbaa !98
  call void @zend_register_long_constant(ptr noundef @.str.78, i64 noundef 19, i64 noundef 2, i32 noundef 1, i32 noundef %5)
  %6 = load i32, ptr %2, align 4, !tbaa !98
  call void @zend_register_long_constant(ptr noundef @.str.79, i64 noundef 18, i64 noundef 1, i32 noundef 1, i32 noundef %6)
  ret void
}

; Function Attrs: nounwind uwtable
define internal i32 @zm_startup_phpdbg(i32 noundef %0, i32 noundef %1) #0 {
  %3 = alloca i32, align 4
  %4 = alloca i32, align 4
  store i32 %0, ptr %3, align 4, !tbaa !98
  store i32 %1, ptr %4, align 4, !tbaa !98
  call void @_zend_hash_init(ptr noundef @phpdbg_globals, i32 noundef 8, ptr noundef @php_phpdbg_destroy_bp_file, i1 noundef zeroext false)
  call void @_zend_hash_init(ptr noundef getelementptr inbounds ([11 x %struct._zend_array], ptr @phpdbg_globals, i64 0, i64 1), i32 noundef 8, ptr noundef @php_phpdbg_destroy_bp_file, i1 noundef zeroext false)
  call void @_zend_hash_init(ptr noundef getelementptr inbounds ([11 x %struct._zend_array], ptr @phpdbg_globals, i64 0, i64 2), i32 noundef 8, ptr noundef @php_phpdbg_destroy_bp_symbol, i1 noundef zeroext false)
  call void @_zend_hash_init(ptr noundef getelementptr inbounds ([11 x %struct._zend_array], ptr @phpdbg_globals, i64 0, i64 7), i32 noundef 8, ptr noundef @php_phpdbg_destroy_bp_methods, i1 noundef zeroext false)
  call void @_zend_hash_init(ptr noundef getelementptr inbounds ([11 x %struct._zend_array], ptr @phpdbg_globals, i64 0, i64 8), i32 noundef 8, ptr noundef @php_phpdbg_destroy_bp_methods, i1 noundef zeroext false)
  call void @_zend_hash_init(ptr noundef getelementptr inbounds ([11 x %struct._zend_array], ptr @phpdbg_globals, i64 0, i64 9), i32 noundef 8, ptr noundef @php_phpdbg_destroy_bp_methods, i1 noundef zeroext false)
  call void @_zend_hash_init(ptr noundef getelementptr inbounds ([11 x %struct._zend_array], ptr @phpdbg_globals, i64 0, i64 3), i32 noundef 8, ptr noundef @php_phpdbg_destroy_bp_opline, i1 noundef zeroext false)
  call void @_zend_hash_init(ptr noundef getelementptr inbounds ([11 x %struct._zend_array], ptr @phpdbg_globals, i64 0, i64 6), i32 noundef 8, ptr noundef @php_phpdbg_destroy_bp_opcode, i1 noundef zeroext false)
  call void @_zend_hash_init(ptr noundef getelementptr inbounds ([11 x %struct._zend_array], ptr @phpdbg_globals, i64 0, i64 4), i32 noundef 8, ptr noundef @php_phpdbg_destroy_bp_methods, i1 noundef zeroext false)
  call void @_zend_hash_init(ptr noundef getelementptr inbounds ([11 x %struct._zend_array], ptr @phpdbg_globals, i64 0, i64 5), i32 noundef 8, ptr noundef @php_phpdbg_destroy_bp_condition, i1 noundef zeroext false)
  call void @_zend_hash_init(ptr noundef getelementptr inbounds ([11 x %struct._zend_array], ptr @phpdbg_globals, i64 0, i64 10), i32 noundef 8, ptr noundef null, i1 noundef zeroext false)
  call void @_zend_hash_init(ptr noundef getelementptr inbounds nuw (%struct._zend_phpdbg_globals, ptr @phpdbg_globals, i32 0, i32 2), i32 noundef 8, ptr noundef null, i1 noundef zeroext false)
  call void @_zend_hash_init(ptr noundef getelementptr inbounds nuw (%struct._zend_phpdbg_globals, ptr @phpdbg_globals, i32 0, i32 1), i32 noundef 8, ptr noundef null, i1 noundef zeroext true)
  call void @_zend_hash_init(ptr noundef getelementptr inbounds nuw (%struct._zend_phpdbg_globals, ptr @phpdbg_globals, i32 0, i32 36), i32 noundef 0, ptr noundef @php_phpdbg_destroy_file_source, i1 noundef zeroext false)
  call void @phpdbg_setup_watchpoints()
  store ptr @phpdbg_execute_ex, ptr @zend_execute_ex, align 8, !tbaa !118
  %5 = load i32, ptr %4, align 4, !tbaa !98
  call void @register_phpdbg_symbols(i32 noundef %5)
  ret i32 0
}