; Function Attrs: nounwind uwtable
define internal noundef i32 @zm_startup_phpdbg(i32 %0, i32 noundef %1) #0 {
  tail call void @_zend_hash_init(ptr noundef nonnull @phpdbg_globals, i32 noundef 8, ptr noundef nonnull @php_phpdbg_destroy_bp_file, i1 noundef zeroext false) #27
  tail call void @_zend_hash_init(ptr noundef nonnull getelementptr inbounds nuw (i8, ptr @phpdbg_globals, i64 56), i32 noundef 8, ptr noundef nonnull @php_phpdbg_destroy_bp_file, i1 noundef zeroext false) #27
  tail call void @_zend_hash_init(ptr noundef nonnull getelementptr inbounds nuw (i8, ptr @phpdbg_globals, i64 112), i32 noundef 8, ptr noundef nonnull @php_phpdbg_destroy_bp_symbol, i1 noundef zeroext false) #27
  tail call void @_zend_hash_init(ptr noundef nonnull getelementptr inbounds nuw (i8, ptr @phpdbg_globals, i64 392), i32 noundef 8, ptr noundef nonnull @php_phpdbg_destroy_bp_methods, i1 noundef zeroext false) #27
  tail call void @_zend_hash_init(ptr noundef nonnull getelementptr inbounds nuw (i8, ptr @phpdbg_globals, i64 448), i32 noundef 8, ptr noundef nonnull @php_phpdbg_destroy_bp_methods, i1 noundef zeroext false) #27
  tail call void @_zend_hash_init(ptr noundef nonnull getelementptr inbounds nuw (i8, ptr @phpdbg_globals, i64 504), i32 noundef 8, ptr noundef nonnull @php_phpdbg_destroy_bp_methods, i1 noundef zeroext false) #27
  tail call void @_zend_hash_init(ptr noundef nonnull getelementptr inbounds nuw (i8, ptr @phpdbg_globals, i64 168), i32 noundef 8, ptr noundef nonnull @php_phpdbg_destroy_bp_opline, i1 noundef zeroext false) #27
  tail call void @_zend_hash_init(ptr noundef nonnull getelementptr inbounds nuw (i8, ptr @phpdbg_globals, i64 336), i32 noundef 8, ptr noundef nonnull @php_phpdbg_destroy_bp_opcode, i1 noundef zeroext false) #27
  tail call void @_zend_hash_init(ptr noundef nonnull getelementptr inbounds nuw (i8, ptr @phpdbg_globals, i64 224), i32 noundef 8, ptr noundef nonnull @php_phpdbg_destroy_bp_methods, i1 noundef zeroext false) #27
  tail call void @_zend_hash_init(ptr noundef nonnull getelementptr inbounds nuw (i8, ptr @phpdbg_globals, i64 280), i32 noundef 8, ptr noundef nonnull @php_phpdbg_destroy_bp_condition, i1 noundef zeroext false) #27
  tail call void @_zend_hash_init(ptr noundef nonnull getelementptr inbounds nuw (i8, ptr @phpdbg_globals, i64 560), i32 noundef 8, ptr noundef null, i1 noundef zeroext false) #27
  tail call void @_zend_hash_init(ptr noundef nonnull getelementptr inbounds nuw (i8, ptr @phpdbg_globals, i64 672), i32 noundef 8, ptr noundef null, i1 noundef zeroext false) #27
  tail call void @_zend_hash_init(ptr noundef nonnull getelementptr inbounds nuw (i8, ptr @phpdbg_globals, i64 616), i32 noundef 8, ptr noundef null, i1 noundef zeroext true) #27
  tail call void @_zend_hash_init(ptr noundef nonnull getelementptr inbounds nuw (i8, ptr @phpdbg_globals, i64 1424), i32 noundef 0, ptr noundef nonnull @php_phpdbg_destroy_file_source, i1 noundef zeroext false) #27
  tail call void @phpdbg_setup_watchpoints() #27
  store ptr @phpdbg_execute_ex, ptr @zend_execute_ex, align 8, !tbaa !190
  tail call void @zend_register_string_constant(ptr noundef nonnull @.str.76, i64 noundef 14, ptr noundef nonnull @.str.31, i32 noundef 1, i32 noundef %1) #27
  tail call void @zend_register_long_constant(ptr noundef nonnull @.str.77, i64 noundef 19, i64 noundef 0, i32 noundef 1, i32 noundef %1) #27
  tail call void @zend_register_long_constant(ptr noundef nonnull @.str.78, i64 noundef 19, i64 noundef 2, i32 noundef 1, i32 noundef %1) #27
  tail call void @zend_register_long_constant(ptr noundef nonnull @.str.79, i64 noundef 18, i64 noundef 1, i32 noundef 1, i32 noundef %1) #27
  ret i32 0
}